target datalayout = "e-m:e-p270:32:32-p271:32:32-p272:64:64-i64:64-i128:128-f80:128-n8:16:32:64-S128"
target triple = "x86_64-unknown-linux-gnu"

@.str.2 = private unnamed_addr constant [17 x i8] c"<RangeTransform \00", align 1
@.str.3 = private unnamed_addr constant [11 x i8] c"direction=\00", align 1
@.str.4 = private unnamed_addr constant [15 x i8] c", fileindepth=\00", align 1
@.str.5 = private unnamed_addr constant [16 x i8] c", fileoutdepth=\00", align 1
@.str.6 = private unnamed_addr constant [9 x i8] c", style=\00", align 1
@.str.7 = private unnamed_addr constant [14 x i8] c", minInValue=\00", align 1
@.str.8 = private unnamed_addr constant [14 x i8] c", maxInValue=\00", align 1
@.str.9 = private unnamed_addr constant [15 x i8] c", minOutValue=\00", align 1
@.str.10 = private unnamed_addr constant [15 x i8] c", maxOutValue=\00", align 1
@.str.11 = private unnamed_addr constant [2 x i8] c">\00", align 1

; Function Attrs: mustprogress nounwind uwtable
define noundef nonnull align 8 dereferenceable(8) ptr @_ZN19OpenColorIO_v2_4devlsERSoRKNS_14RangeTransformE(ptr noundef nonnull align 8 dereferenceable(8) %os, ptr noundef nonnull align 8 dereferenceable(8) %t) #8 personality ptr @__gxx_personality_v0 {
entry:
  %os.addr = alloca ptr, align 8
  %t.addr = alloca ptr, align 8
  store ptr %os, ptr %os.addr, align 8
  store ptr %t, ptr %t.addr, align 8
  %0 = load ptr, ptr %os.addr, align 8
  %call = invoke noundef nonnull align 8 dereferenceable(8) ptr @_ZStlsISt11char_traitsIcEERSt13basic_ostreamIcT_ES5_PKc(ptr noundef nonnull align 8 dereferenceable(8) %0, ptr noundef @.str.2)
          to label %invoke.cont unwind label %terminate.lpad

invoke.cont:                                      ; preds = %entry
  %1 = load ptr, ptr %os.addr, align 8
  %call2 = invoke noundef nonnull align 8 dereferenceable(8) ptr @_ZStlsISt11char_traitsIcEERSt13basic_ostreamIcT_ES5_PKc(ptr noundef nonnull align 8 dereferenceable(8) %1, ptr noundef @.str.3)
          to label %invoke.cont1 unwind label %terminate.lpad

invoke.cont1:                                     ; preds = %invoke.cont
  %2 = load ptr, ptr %t.addr, align 8
  %vtable = load ptr, ptr %2, align 8
  %vfn = getelementptr inbounds ptr, ptr %vtable, i64 1
  %3 = load ptr, ptr %vfn, align 8
  %call3 = call noundef i32 %3(ptr noundef nonnull align 8 dereferenceable(8) %2) #3
  %call5 = invoke noundef ptr @_ZN19OpenColorIO_v2_4dev26TransformDirectionToStringENS_18TransformDirectionE(i32 noundef %call3)
          to label %invoke.cont4 unwind label %terminate.lpad

invoke.cont4:                                     ; preds = %invoke.cont1
  %call7 = invoke noundef nonnull align 8 dereferenceable(8) ptr @_ZStlsISt11char_traitsIcEERSt13basic_ostreamIcT_ES5_PKc(ptr noundef nonnull align 8 dereferenceable(8) %call2, ptr noundef %call5)
          to label %invoke.cont6 unwind label %terminate.lpad

invoke.cont6:                                     ; preds = %invoke.cont4
  %4 = load ptr, ptr %os.addr, align 8
  %call9 = invoke noundef nonnull align 8 dereferenceable(8) ptr @_ZStlsISt11char_traitsIcEERSt13basic_ostreamIcT_ES5_PKc(ptr noundef nonnull align 8 dereferenceable(8) %4, ptr noundef @.str.4)
          to label %invoke.cont8 unwind label %terminate.lpad

invoke.cont8:                                     ; preds = %invoke.cont6
  %5 = load ptr, ptr %t.addr, align 8
  %vtable10 = load ptr, ptr %5, align 8
  %vfn11 = getelementptr inbounds ptr, ptr %vtable10, i64 12
  %6 = load ptr, ptr %vfn11, align 8
  %call12 = call noundef i32 %6(ptr noundef nonnull align 8 dereferenceable(8) %5) #3
  %call14 = invoke noundef ptr @_ZN19OpenColorIO_v2_4dev16BitDepthToStringENS_8BitDepthE(i32 noundef %call12)
          to label %invoke.cont13 unwind label %terminate.lpad

invoke.cont13:                                    ; preds = %invoke.cont8
  %call16 = invoke noundef nonnull align 8 dereferenceable(8) ptr @_ZStlsISt11char_traitsIcEERSt13basic_ostreamIcT_ES5_PKc(ptr noundef nonnull align 8 dereferenceable(8) %call9, ptr noundef %call14)
          to label %invoke.cont15 unwind label %terminate.lpad

invoke.cont15:                                    ; preds = %invoke.cont13
  %7 = load ptr, ptr %os.addr, align 8
  %call18 = invoke noundef nonnull align 8 dereferenceable(8) ptr @_ZStlsISt11char_traitsIcEERSt13basic_ostreamIcT_ES5_PKc(ptr noundef nonnull align 8 dereferenceable(8) %7, ptr noundef @.str.5)
          to label %invoke.cont17 unwind label %terminate.lpad

invoke.cont17:                                    ; preds = %invoke.cont15
  %8 = load ptr, ptr %t.addr, align 8
  %vtable19 = load ptr, ptr %8, align 8
  %vfn20 = getelementptr inbounds ptr, ptr %vtable19, i64 14
  %9 = load ptr, ptr %vfn20, align 8
  %call21 = call noundef i32 %9(ptr noundef nonnull align 8 dereferenceable(8) %8) #3
  %call23 = invoke noundef ptr @_ZN19OpenColorIO_v2_4dev16BitDepthToStringENS_8BitDepthE(i32 noundef %call21)
          to label %invoke.cont22 unwind label %terminate.lpad

invoke.cont22:                                    ; preds = %invoke.cont17
  %call25 = invoke noundef nonnull align 8 dereferenceable(8) ptr @_ZStlsISt11char_traitsIcEERSt13basic_ostreamIcT_ES5_PKc(ptr noundef nonnull align 8 dereferenceable(8) %call18, ptr noundef %call23)
          to label %invoke.cont24 unwind label %terminate.lpad

invoke.cont24:                                    ; preds = %invoke.cont22
  %10 = load ptr, ptr %t.addr, align 8
  %vtable26 = load ptr, ptr %10, align 8
  %vfn27 = getelementptr inbounds ptr, ptr %vtable26, i64 7
  %11 = load ptr, ptr %vfn27, align 8
  %call28 = call noundef i32 %11(ptr noundef nonnull align 8 dereferenceable(8) %10) #3
  %cmp = icmp ne i32 %call28, 1
  br i1 %cmp, label %if.then, label %if.end

if.then:                                          ; preds = %invoke.cont24
  %12 = load ptr, ptr %os.addr, align 8
  %call30 = invoke noundef nonnull align 8 dereferenceable(8) ptr @_ZStlsISt11char_traitsIcEERSt13basic_ostreamIcT_ES5_PKc(ptr noundef nonnull align 8 dereferenceable(8) %12, ptr noundef @.str.6)
          to label %invoke.cont29 unwind label %terminate.lpad

invoke.cont29:                                    ; preds = %if.then
  %13 = load ptr, ptr %t.addr, align 8
  %vtable31 = load ptr, ptr %13, align 8
  %vfn32 = getelementptr inbounds ptr, ptr %vtable31, i64 7
  %14 = load ptr, ptr %vfn32, align 8
  %call33 = call noundef i32 %14(ptr noundef nonnull align 8 dereferenceable(8) %13) #3
  %call35 = invoke noundef ptr @_ZN19OpenColorIO_v2_4dev18RangeStyleToStringENS_10RangeStyleE(i32 noundef %call33)
          to label %invoke.cont34 unwind label %terminate.lpad

invoke.cont34:                                    ; preds = %invoke.cont29
  %call37 = invoke noundef nonnull align 8 dereferenceable(8) ptr @_ZStlsISt11char_traitsIcEERSt13basic_ostreamIcT_ES5_PKc(ptr noundef nonnull align 8 dereferenceable(8) %call30, ptr noundef %call35)
          to label %invoke.cont36 unwind label %terminate.lpad

invoke.cont36:                                    ; preds = %invoke.cont34
  br label %if.end

if.end:                                           ; preds = %invoke.cont36, %invoke.cont24
  %15 = load ptr, ptr %t.addr, align 8
  %vtable38 = load ptr, ptr %15, align 8
  %vfn39 = getelementptr inbounds ptr, ptr %vtable38, i64 18
  %16 = load ptr, ptr %vfn39, align 8
  %call40 = call noundef zeroext i1 %16(ptr noundef nonnull align 8 dereferenceable(8) %15) #3
  br i1 %call40, label %if.then41, label %if.end49

if.then41:                                        ; preds = %if.end
  %17 = load ptr, ptr %os.addr, align 8
  %call43 = invoke noundef nonnull align 8 dereferenceable(8) ptr @_ZStlsISt11char_traitsIcEERSt13basic_ostreamIcT_ES5_PKc(ptr noundef nonnull align 8 dereferenceable(8) %17, ptr noundef @.str.7)
          to label %invoke.cont42 unwind label %terminate.lpad

invoke.cont42:                                    ; preds = %if.then41
  %18 = load ptr, ptr %t.addr, align 8
  %vtable44 = load ptr, ptr %18, align 8
  %vfn45 = getelementptr inbounds ptr, ptr %vtable44, i64 16
  %19 = load ptr, ptr %vfn45, align 8
  %call46 = call noundef double %19(ptr noundef nonnull align 8 dereferenceable(8) %18) #3
  %call48 = invoke noundef nonnull align 8 dereferenceable(8) ptr @_ZNSolsEd(ptr noundef nonnull align 8 dereferenceable(8) %call43, double noundef %call46)
          to label %invoke.cont47 unwind label %terminate.lpad

invoke.cont47:                                    ; preds = %invoke.cont42
  br label %if.end49

if.end49:                                         ; preds = %invoke.cont47, %if.end
  %20 = load ptr, ptr %t.addr, align 8
  %vtable50 = load ptr, ptr %20, align 8
  %vfn51 = getelementptr inbounds ptr, ptr %vtable50, i64 22
  %21 = load ptr, ptr %vfn51, align 8
  %call52 = call noundef zeroext i1 %21(ptr noundef nonnull align 8 dereferenceable(8) %20) #3
  br i1 %call52, label %if.then53, label %if.end61

if.then53:                                        ; preds = %if.end49
  %22 = load ptr, ptr %os.addr, align 8
  %call55 = invoke noundef nonnull align 8 dereferenceable(8) ptr @_ZStlsISt11char_traitsIcEERSt13basic_ostreamIcT_ES5_PKc(ptr noundef nonnull align 8 dereferenceable(8) %22, ptr noundef @.str.8)
          to label %invoke.cont54 unwind label %terminate.lpad

invoke.cont54:                                    ; preds = %if.then53
  %23 = load ptr, ptr %t.addr, align 8
  %vtable56 = load ptr, ptr %23, align 8
  %vfn57 = getelementptr inbounds ptr, ptr %vtable56, i64 21
  %24 = load ptr, ptr %vfn57, align 8
  %call58 = call noundef double %24(ptr noundef nonnull align 8 dereferenceable(8) %23) #3
  %call60 = invoke noundef nonnull align 8 dereferenceable(8) ptr @_ZNSolsEd(ptr noundef nonnull align 8 dereferenceable(8) %call55, double noundef %call58)
          to label %invoke.cont59 unwind label %terminate.lpad

invoke.cont59:                                    ; preds = %invoke.cont54
  br label %if.end61

if.end61:                                         ; preds = %invoke.cont59, %if.end49
  %25 = load ptr, ptr %t.addr, align 8
  %vtable62 = load ptr, ptr %25, align 8
  %vfn63 = getelementptr inbounds ptr, ptr %vtable62, i64 26
  %26 = load ptr, ptr %vfn63, align 8
  %call64 = call noundef zeroext i1 %26(ptr noundef nonnull align 8 dereferenceable(8) %25) #3
  br i1 %call64, label %if.then65, label %if.end73

if.then65:                                        ; preds = %if.end61
  %27 = load ptr, ptr %os.addr, align 8
  %call67 = invoke noundef nonnull align 8 dereferenceable(8) ptr @_ZStlsISt11char_traitsIcEERSt13basic_ostreamIcT_ES5_PKc(ptr noundef nonnull align 8 dereferenceable(8) %27, ptr noundef @.str.9)
          to label %invoke.cont66 unwind label %terminate.lpad

invoke.cont66:                                    ; preds = %if.then65
  %28 = load ptr, ptr %t.addr, align 8
  %vtable68 = load ptr, ptr %28, align 8
  %vfn69 = getelementptr inbounds ptr, ptr %vtable68, i64 25
  %29 = load ptr, ptr %vfn69, align 8
  %call70 = call noundef double %29(ptr noundef nonnull align 8 dereferenceable(8) %28) #3
  %call72 = invoke noundef nonnull align 8 dereferenceable(8) ptr @_ZNSolsEd(ptr noundef nonnull align 8 dereferenceable(8) %call67, double noundef %call70)
          to label %invoke.cont71 unwind label %terminate.lpad

invoke.cont71:                                    ; preds = %invoke.cont66
  br label %if.end73

if.end73:                                         ; preds = %invoke.cont71, %if.end61
  %30 = load ptr, ptr %t.addr, align 8
  %vtable74 = load ptr, ptr %30, align 8
  %vfn75 = getelementptr inbounds ptr, ptr %vtable74, i64 30
  %31 = load ptr, ptr %vfn75, align 8
  %call76 = call noundef zeroext i1 %31(ptr noundef nonnull align 8 dereferenceable(8) %30) #3
  br i1 %call76, label %if.then77, label %if.end85

if.then77:                                        ; preds = %if.end73
  %32 = load ptr, ptr %os.addr, align 8
  %call79 = invoke noundef nonnull align 8 dereferenceable(8) ptr @_ZStlsISt11char_traitsIcEERSt13basic_ostreamIcT_ES5_PKc(ptr noundef nonnull align 8 dereferenceable(8) %32, ptr noundef @.str.10)
          to label %invoke.cont78 unwind label %terminate.lpad

invoke.cont78:                                    ; preds = %if.then77
  %33 = load ptr, ptr %t.addr, align 8
  %vtable80 = load ptr, ptr %33, align 8
  %vfn81 = getelementptr inbounds ptr, ptr %vtable80, i64 29
  %34 = load ptr, ptr %vfn81, align 8
  %call82 = call noundef double %34(ptr noundef nonnull align 8 dereferenceable(8) %33) #3
  %call84 = invoke noundef nonnull align 8 dereferenceable(8) ptr @_ZNSolsEd(ptr noundef nonnull align 8 dereferenceable(8) %call79, double noundef %call82)
          to label %invoke.cont83 unwind label %terminate.lpad

invoke.cont83:                                    ; preds = %invoke.cont78
  br label %if.end85

if.end85:                                         ; preds = %invoke.cont83, %if.end73
  %35 = load ptr, ptr %os.addr, align 8
  %call87 = invoke noundef nonnull align 8 dereferenceable(8) ptr @_ZStlsISt11char_traitsIcEERSt13basic_ostreamIcT_ES5_PKc(ptr noundef nonnull align 8 dereferenceable(8) %35, ptr noundef @.str.11)
          to label %invoke.cont86 unwind label %terminate.lpad

invoke.cont86:                                    ; preds = %if.end85
  %36 = load ptr, ptr %os.addr, align 8
  ret ptr %36

terminate.lpad:                                   ; preds = %if.end85, %invoke.cont78, %if.then77, %invoke.cont66, %if.then65, %invoke.cont54, %if.then53, %invoke.cont42, %if.then41, %invoke.cont34, %invoke.cont29, %if.then, %invoke.cont22, %invoke.cont17, %invoke.cont15, %invoke.cont13, %invoke.cont8, %invoke.cont6, %invoke.cont4, %invoke.cont1, %invoke.cont, %entry
  %37 = landingpad { ptr, i32 }
          catch ptr null
  %38 = extractvalue { ptr, i32 } %37, 0
  call void @__clang_call_terminate(ptr %38) #18
  unreachable
}