; Function Attrs: mustprogress nounwind uwtable
define noundef nonnull align 8 dereferenceable(8) ptr @_ZN19OpenColorIO_v2_4devlsERSoRKNS_14RangeTransformE(ptr noundef nonnull returned align 8 dereferenceable(8) %os, ptr noundef nonnull align 8 dereferenceable(8) %t) local_unnamed_addr #7 personality ptr @__gxx_personality_v0 {
entry:
  %call = invoke noundef nonnull align 8 dereferenceable(8) ptr @_ZStlsISt11char_traitsIcEERSt13basic_ostreamIcT_ES5_PKc(ptr noundef nonnull align 8 dereferenceable(8) %os, ptr noundef nonnull @.str.2)
          to label %invoke.cont unwind label %terminate.lpad

invoke.cont:                                      ; preds = %entry
  %call2 = invoke noundef nonnull align 8 dereferenceable(8) ptr @_ZStlsISt11char_traitsIcEERSt13basic_ostreamIcT_ES5_PKc(ptr noundef nonnull align 8 dereferenceable(8) %os, ptr noundef nonnull @.str.3)
          to label %invoke.cont1 unwind label %terminate.lpad

invoke.cont1:                                     ; preds = %invoke.cont
  %vtable = load ptr, ptr %t, align 8
  %vfn = getelementptr inbounds i8, ptr %vtable, i64 8
  %0 = load ptr, ptr %vfn, align 8
  %call3 = tail call noundef i32 %0(ptr noundef nonnull align 8 dereferenceable(8) %t) #18
  %call5 = invoke noundef ptr @_ZN19OpenColorIO_v2_4dev26TransformDirectionToStringENS_18TransformDirectionE(i32 noundef %call3)
          to label %invoke.cont4 unwind label %terminate.lpad

invoke.cont4:                                     ; preds = %invoke.cont1
  %call7 = invoke noundef nonnull align 8 dereferenceable(8) ptr @_ZStlsISt11char_traitsIcEERSt13basic_ostreamIcT_ES5_PKc(ptr noundef nonnull align 8 dereferenceable(8) %call2, ptr noundef %call5)
          to label %invoke.cont6 unwind label %terminate.lpad

invoke.cont6:                                     ; preds = %invoke.cont4
  %call9 = invoke noundef nonnull align 8 dereferenceable(8) ptr @_ZStlsISt11char_traitsIcEERSt13basic_ostreamIcT_ES5_PKc(ptr noundef nonnull align 8 dereferenceable(8) %os, ptr noundef nonnull @.str.4)
          to label %invoke.cont8 unwind label %terminate.lpad

invoke.cont8:                                     ; preds = %invoke.cont6
  %vtable10 = load ptr, ptr %t, align 8
  %vfn11 = getelementptr inbounds i8, ptr %vtable10, i64 96
  %1 = load ptr, ptr %vfn11, align 8
  %call12 = tail call noundef i32 %1(ptr noundef nonnull align 8 dereferenceable(8) %t) #18
  %call14 = invoke noundef ptr @_ZN19OpenColorIO_v2_4dev16BitDepthToStringENS_8BitDepthE(i32 noundef %call12)
          to label %invoke.cont13 unwind label %terminate.lpad

invoke.cont13:                                    ; preds = %invoke.cont8
  %call16 = invoke noundef nonnull align 8 dereferenceable(8) ptr @_ZStlsISt11char_traitsIcEERSt13basic_ostreamIcT_ES5_PKc(ptr noundef nonnull align 8 dereferenceable(8) %call9, ptr noundef %call14)
          to label %invoke.cont15 unwind label %terminate.lpad

invoke.cont15:                                    ; preds = %invoke.cont13
  %call18 = invoke noundef nonnull align 8 dereferenceable(8) ptr @_ZStlsISt11char_traitsIcEERSt13basic_ostreamIcT_ES5_PKc(ptr noundef nonnull align 8 dereferenceable(8) %os, ptr noundef nonnull @.str.5)
          to label %invoke.cont17 unwind label %terminate.lpad

invoke.cont17:                                    ; preds = %invoke.cont15
  %vtable19 = load ptr, ptr %t, align 8
  %vfn20 = getelementptr inbounds i8, ptr %vtable19, i64 112
  %2 = load ptr, ptr %vfn20, align 8
  %call21 = tail call noundef i32 %2(ptr noundef nonnull align 8 dereferenceable(8) %t) #18
  %call23 = invoke noundef ptr @_ZN19OpenColorIO_v2_4dev16BitDepthToStringENS_8BitDepthE(i32 noundef %call21)
          to label %invoke.cont22 unwind label %terminate.lpad

invoke.cont22:                                    ; preds = %invoke.cont17
  %call25 = invoke noundef nonnull align 8 dereferenceable(8) ptr @_ZStlsISt11char_traitsIcEERSt13basic_ostreamIcT_ES5_PKc(ptr noundef nonnull align 8 dereferenceable(8) %call18, ptr noundef %call23)
          to label %invoke.cont24 unwind label %terminate.lpad

invoke.cont24:                                    ; preds = %invoke.cont22
  %vtable26 = load ptr, ptr %t, align 8
  %vfn27 = getelementptr inbounds i8, ptr %vtable26, i64 56
  %3 = load ptr, ptr %vfn27, align 8
  %call28 = tail call noundef i32 %3(ptr noundef nonnull align 8 dereferenceable(8) %t) #18
  %cmp.not = icmp eq i32 %call28, 1
  br i1 %cmp.not, label %if.end, label %if.then

if.then:                                          ; preds = %invoke.cont24
  %call30 = invoke noundef nonnull align 8 dereferenceable(8) ptr @_ZStlsISt11char_traitsIcEERSt13basic_ostreamIcT_ES5_PKc(ptr noundef nonnull align 8 dereferenceable(8) %os, ptr noundef nonnull @.str.6)
          to label %invoke.cont29 unwind label %terminate.lpad

invoke.cont29:                                    ; preds = %if.then
  %vtable31 = load ptr, ptr %t, align 8
  %vfn32 = getelementptr inbounds i8, ptr %vtable31, i64 56
  %4 = load ptr, ptr %vfn32, align 8
  %call33 = tail call noundef i32 %4(ptr noundef nonnull align 8 dereferenceable(8) %t) #18
  %call35 = invoke noundef ptr @_ZN19OpenColorIO_v2_4dev18RangeStyleToStringENS_10RangeStyleE(i32 noundef %call33)
          to label %invoke.cont34 unwind label %terminate.lpad

invoke.cont34:                                    ; preds = %invoke.cont29
  %call37 = invoke noundef nonnull align 8 dereferenceable(8) ptr @_ZStlsISt11char_traitsIcEERSt13basic_ostreamIcT_ES5_PKc(ptr noundef nonnull align 8 dereferenceable(8) %call30, ptr noundef %call35)
          to label %if.end unwind label %terminate.lpad

if.end:                                           ; preds = %invoke.cont34, %invoke.cont24
  %vtable38 = load ptr, ptr %t, align 8
  %vfn39 = getelementptr inbounds i8, ptr %vtable38, i64 144
  %5 = load ptr, ptr %vfn39, align 8
  %call40 = tail call noundef zeroext i1 %5(ptr noundef nonnull align 8 dereferenceable(8) %t) #18
  br i1 %call40, label %if.then41, label %if.end49

if.then41:                                        ; preds = %if.end
  %call43 = invoke noundef nonnull align 8 dereferenceable(8) ptr @_ZStlsISt11char_traitsIcEERSt13basic_ostreamIcT_ES5_PKc(ptr noundef nonnull align 8 dereferenceable(8) %os, ptr noundef nonnull @.str.7)
          to label %invoke.cont42 unwind label %terminate.lpad

invoke.cont42:                                    ; preds = %if.then41
  %vtable44 = load ptr, ptr %t, align 8
  %vfn45 = getelementptr inbounds i8, ptr %vtable44, i64 128
  %6 = load ptr, ptr %vfn45, align 8
  %call46 = tail call noundef double %6(ptr noundef nonnull align 8 dereferenceable(8) %t) #18
  %call48 = invoke noundef nonnull align 8 dereferenceable(8) ptr @_ZNSolsEd(ptr noundef nonnull align 8 dereferenceable(8) %call43, double noundef %call46)
          to label %if.end49 unwind label %terminate.lpad

if.end49:                                         ; preds = %invoke.cont42, %if.end
  %vtable50 = load ptr, ptr %t, align 8
  %vfn51 = getelementptr inbounds i8, ptr %vtable50, i64 176
  %7 = load ptr, ptr %vfn51, align 8
  %call52 = tail call noundef zeroext i1 %7(ptr noundef nonnull align 8 dereferenceable(8) %t) #18
  br i1 %call52, label %if.then53, label %if.end61

if.then53:                                        ; preds = %if.end49
  %call55 = invoke noundef nonnull align 8 dereferenceable(8) ptr @_ZStlsISt11char_traitsIcEERSt13basic_ostreamIcT_ES5_PKc(ptr noundef nonnull align 8 dereferenceable(8) %os, ptr noundef nonnull @.str.8)
          to label %invoke.cont54 unwind label %terminate.lpad

invoke.cont54:                                    ; preds = %if.then53
  %vtable56 = load ptr, ptr %t, align 8
  %vfn57 = getelementptr inbounds i8, ptr %vtable56, i64 168
  %8 = load ptr, ptr %vfn57, align 8
  %call58 = tail call noundef double %8(ptr noundef nonnull align 8 dereferenceable(8) %t) #18
  %call60 = invoke noundef nonnull align 8 dereferenceable(8) ptr @_ZNSolsEd(ptr noundef nonnull align 8 dereferenceable(8) %call55, double noundef %call58)
          to label %if.end61 unwind label %terminate.lpad

if.end61:                                         ; preds = %invoke.cont54, %if.end49
  %vtable62 = load ptr, ptr %t, align 8
  %vfn63 = getelementptr inbounds i8, ptr %vtable62, i64 208
  %9 = load ptr, ptr %vfn63, align 8
  %call64 = tail call noundef zeroext i1 %9(ptr noundef nonnull align 8 dereferenceable(8) %t) #18
  br i1 %call64, label %if.then65, label %if.end73

if.then65:                                        ; preds = %if.end61
  %call67 = invoke noundef nonnull align 8 dereferenceable(8) ptr @_ZStlsISt11char_traitsIcEERSt13basic_ostreamIcT_ES5_PKc(ptr noundef nonnull align 8 dereferenceable(8) %os, ptr noundef nonnull @.str.9)
          to label %invoke.cont66 unwind label %terminate.lpad

invoke.cont66:                                    ; preds = %if.then65
  %vtable68 = load ptr, ptr %t, align 8
  %vfn69 = getelementptr inbounds i8, ptr %vtable68, i64 200
  %10 = load ptr, ptr %vfn69, align 8
  %call70 = tail call noundef double %10(ptr noundef nonnull align 8 dereferenceable(8) %t) #18
  %call72 = invoke noundef nonnull align 8 dereferenceable(8) ptr @_ZNSolsEd(ptr noundef nonnull align 8 dereferenceable(8) %call67, double noundef %call70)
          to label %if.end73 unwind label %terminate.lpad

if.end73:                                         ; preds = %invoke.cont66, %if.end61
  %vtable74 = load ptr, ptr %t, align 8
  %vfn75 = getelementptr inbounds i8, ptr %vtable74, i64 240
  %11 = load ptr, ptr %vfn75, align 8
  %call76 = tail call noundef zeroext i1 %11(ptr noundef nonnull align 8 dereferenceable(8) %t) #18
  br i1 %call76, label %if.then77, label %if.end85

if.then77:                                        ; preds = %if.end73
  %call79 = invoke noundef nonnull align 8 dereferenceable(8) ptr @_ZStlsISt11char_traitsIcEERSt13basic_ostreamIcT_ES5_PKc(ptr noundef nonnull align 8 dereferenceable(8) %os, ptr noundef nonnull @.str.10)
          to label %invoke.cont78 unwind label %terminate.lpad

invoke.cont78:                                    ; preds = %if.then77
  %vtable80 = load ptr, ptr %t, align 8
  %vfn81 = getelementptr inbounds i8, ptr %vtable80, i64 232
  %12 = load ptr, ptr %vfn81, align 8
  %call82 = tail call noundef double %12(ptr noundef nonnull align 8 dereferenceable(8) %t) #18
  %call84 = invoke noundef nonnull align 8 dereferenceable(8) ptr @_ZNSolsEd(ptr noundef nonnull align 8 dereferenceable(8) %call79, double noundef %call82)
          to label %if.end85 unwind label %terminate.lpad

if.end85:                                         ; preds = %invoke.cont78, %if.end73
  %call87 = invoke noundef nonnull align 8 dereferenceable(8) ptr @_ZStlsISt11char_traitsIcEERSt13basic_ostreamIcT_ES5_PKc(ptr noundef nonnull align 8 dereferenceable(8) %os, ptr noundef nonnull @.str.11)
          to label %invoke.cont86 unwind label %terminate.lpad

invoke.cont86:                                    ; preds = %if.end85
  ret ptr %os

terminate.lpad:                                   ; preds = %if.end85, %invoke.cont78, %if.then77, %invoke.cont66, %if.then65, %invoke.cont54, %if.then53, %invoke.cont42, %if.then41, %invoke.cont34, %invoke.cont29, %if.then, %invoke.cont22, %invoke.cont17, %invoke.cont15, %invoke.cont13, %invoke.cont8, %invoke.cont6, %invoke.cont4, %invoke.cont1, %invoke.cont, %entry
  %13 = landingpad { ptr, i32 }
          catch ptr null
  %14 = extractvalue { ptr, i32 } %13, 0
  tail call void @__clang_call_terminate(ptr %14) #20
  unreachable
}